target datalayout = "e-m:e-p270:32:32-p271:32:32-p272:64:64-i64:64-i128:128-f80:128-n8:16:32:64-S128"
target triple = "x86_64-pc-linux-gnu"

%struct._zend_array = type { %struct._zend_refcounted_h, %union.anon.0, i32, %union.anon.1, i32, i32, i32, i32, i64, ptr }
%struct._zend_refcounted_h = type { i32, %union.anon }
%union.anon = type { i32 }
%union.anon.0 = type { i32 }
%union.anon.1 = type { ptr }
%struct._zval_struct = type { %union._zend_value, %union.anon.3, %union.anon.6 }
%union._zend_value = type { i64 }
%union.anon.3 = type { i32 }
%union.anon.6 = type { i32 }
%struct._Bucket = type { %struct._zval_struct, i64, ptr }

; Function Attrs: nounwind uwtable
define i32 @zend_hash_get_current_key_type_ex(ptr noundef %0, ptr noundef %1) #0 {
  %3 = alloca ptr, align 8
  %4 = alloca ptr, align 8
  %5 = alloca ptr, align 8
  %6 = alloca i32, align 4
  %7 = alloca i32, align 4
  %8 = alloca ptr, align 8
  %9 = alloca ptr, align 8
  %10 = alloca i32, align 4
  %11 = alloca ptr, align 8
  store ptr %0, ptr %8, align 8
  store ptr %1, ptr %9, align 8
  %12 = load ptr, ptr %8, align 8
  %13 = load ptr, ptr %9, align 8
  %14 = load i32, ptr %13, align 4
  store ptr %12, ptr %5, align 8
  store i32 %14, ptr %6, align 4
  %15 = load ptr, ptr %5, align 8
  %16 = getelementptr inbounds %struct._zend_array, ptr %15, i32 0, i32 1
  %17 = load i32, ptr %16, align 8
  %18 = and i32 %17, 4
  %19 = icmp ne i32 %18, 0
  br i1 %19, label %20, label %45

20:                                               ; preds = %2
  br label %21

21:                                               ; preds = %41, %20
  %22 = load i32, ptr %6, align 4
  %23 = load ptr, ptr %5, align 8
  %24 = getelementptr inbounds %struct._zend_array, ptr %23, i32 0, i32 4
  %25 = load i32, ptr %24, align 8
  %26 = icmp ult i32 %22, %25
  br i1 %26, label %27, label %39

27:                                               ; preds = %21
  %28 = load ptr, ptr %5, align 8
  %29 = getelementptr inbounds %struct._zend_array, ptr %28, i32 0, i32 3
  %30 = load ptr, ptr %29, align 8
  %31 = load i32, ptr %6, align 4
  %32 = zext i32 %31 to i64
  %33 = getelementptr inbounds %struct._zval_struct, ptr %30, i64 %32
  store ptr %33, ptr %3, align 8
  %34 = load ptr, ptr %3, align 8
  %35 = getelementptr inbounds %struct._zval_struct, ptr %34, i32 0, i32 1
  %36 = load i8, ptr %35, align 8
  %37 = zext i8 %36 to i32
  %38 = icmp eq i32 %37, 0
  br label %39

39:                                               ; preds = %27, %21
  %40 = phi i1 [ false, %21 ], [ %38, %27 ]
  br i1 %40, label %41, label %44

41:                                               ; preds = %39
  %42 = load i32, ptr %6, align 4
  %43 = add i32 %42, 1
  store i32 %43, ptr %6, align 4
  br label %21

44:                                               ; preds = %39
  br label %70

45:                                               ; preds = %2
  br label %46

46:                                               ; preds = %66, %45
  %47 = load i32, ptr %6, align 4
  %48 = load ptr, ptr %5, align 8
  %49 = getelementptr inbounds %struct._zend_array, ptr %48, i32 0, i32 4
  %50 = load i32, ptr %49, align 8
  %51 = icmp ult i32 %47, %50
  br i1 %51, label %52, label %64

52:                                               ; preds = %46
  %53 = load ptr, ptr %5, align 8
  %54 = getelementptr inbounds %struct._zend_array, ptr %53, i32 0, i32 3
  %55 = load ptr, ptr %54, align 8
  %56 = load i32, ptr %6, align 4
  %57 = zext i32 %56 to i64
  %58 = getelementptr inbounds %struct._Bucket, ptr %55, i64 %57
  store ptr %58, ptr %4, align 8
  %59 = load ptr, ptr %4, align 8
  %60 = getelementptr inbounds %struct._zval_struct, ptr %59, i32 0, i32 1
  %61 = load i8, ptr %60, align 8
  %62 = zext i8 %61 to i32
  %63 = icmp eq i32 %62, 0
  br label %64

64:                                               ; preds = %52, %46
  %65 = phi i1 [ false, %46 ], [ %63, %52 ]
  br i1 %65, label %66, label %69

66:                                               ; preds = %64
  %67 = load i32, ptr %6, align 4
  %68 = add i32 %67, 1
  store i32 %68, ptr %6, align 4
  br label %46

69:                                               ; preds = %64
  br label %70

70:                                               ; preds = %69, %44
  %71 = load i32, ptr %6, align 4
  store i32 %71, ptr %10, align 4
  %72 = load i32, ptr %10, align 4
  %73 = load ptr, ptr %8, align 8
  %74 = getelementptr inbounds %struct._zend_array, ptr %73, i32 0, i32 4
  %75 = load i32, ptr %74, align 8
  %76 = icmp ult i32 %72, %75
  br i1 %76, label %77, label %97

77:                                               ; preds = %70
  %78 = load ptr, ptr %8, align 8
  %79 = getelementptr inbounds %struct._zend_array, ptr %78, i32 0, i32 1
  %80 = load i32, ptr %79, align 8
  %81 = and i32 %80, 4
  %82 = icmp ne i32 %81, 0
  br i1 %82, label %83, label %84

83:                                               ; preds = %77
  store i32 2, ptr %7, align 4
  br label %98

84:                                               ; preds = %77
  %85 = load ptr, ptr %8, align 8
  %86 = getelementptr inbounds %struct._zend_array, ptr %85, i32 0, i32 3
  %87 = load ptr, ptr %86, align 8
  %88 = load i32, ptr %10, align 4
  %89 = zext i32 %88 to i64
  %90 = getelementptr inbounds %struct._Bucket, ptr %87, i64 %89
  store ptr %90, ptr %11, align 8
  %91 = load ptr, ptr %11, align 8
  %92 = getelementptr inbounds %struct._Bucket, ptr %91, i32 0, i32 2
  %93 = load ptr, ptr %92, align 8
  %94 = icmp ne ptr %93, null
  br i1 %94, label %95, label %96

95:                                               ; preds = %84
  store i32 1, ptr %7, align 4
  br label %98

96:                                               ; preds = %84
  store i32 2, ptr %7, align 4
  br label %98

97:                                               ; preds = %70
  store i32 3, ptr %7, align 4
  br label %98

98:                                               ; preds = %97, %96, %95, %83
  %99 = load i32, ptr %7, align 4
  ret i32 %99
}