; Function Attrs: nofree norecurse nosync nounwind memory(read, inaccessiblemem: none) uwtable
define i32 @zend_hash_get_current_key_type_ex(ptr nocapture noundef readonly %0, ptr nocapture noundef readonly %1) local_unnamed_addr #12 {
  %3 = load i32, ptr %1, align 4
  %4 = getelementptr inbounds i8, ptr %0, i64 8
  %5 = load i32, ptr %4, align 8
  %6 = and i32 %5, 4
  %.not = icmp ne i32 %6, 0
  %7 = getelementptr inbounds i8, ptr %0, i64 24
  %8 = load i32, ptr %7, align 8
  %9 = icmp ult i32 %3, %8
  br i1 %.not, label %.preheader, label %.preheader28

.preheader28:                                     ; preds = %2
  br i1 %9, label %.lr.ph, label %.critedge

.lr.ph:                                           ; preds = %.preheader28
  %10 = getelementptr inbounds i8, ptr %0, i64 16
  %11 = load ptr, ptr %10, align 8
  %12 = zext i32 %3 to i64
  br label %21

.preheader:                                       ; preds = %2
  br i1 %9, label %.lr.ph34, label %.critedge.thread

.lr.ph34:                                         ; preds = %.preheader
  %13 = getelementptr inbounds i8, ptr %0, i64 16
  %14 = load ptr, ptr %13, align 8
  %15 = zext i32 %3 to i64
  br label %16

16:                                               ; preds = %.lr.ph34, %20
  %indvars.iv41 = phi i64 [ %15, %.lr.ph34 ], [ %indvars.iv.next42, %20 ]
  %17 = getelementptr inbounds %struct._zval_struct, ptr %14, i64 %indvars.iv41, i32 1
  %18 = load i8, ptr %17, align 8
  %19 = icmp eq i8 %18, 0
  br i1 %19, label %20, label %.critedge.loopexit

20:                                               ; preds = %16
  %indvars.iv.next42 = add nuw nsw i64 %indvars.iv41, 1
  %lftr.wideiv44 = trunc i64 %indvars.iv.next42 to i32
  %exitcond45.not = icmp eq i32 %8, %lftr.wideiv44
  br i1 %exitcond45.not, label %.critedge.thread, label %16

21:                                               ; preds = %.lr.ph, %25
  %indvars.iv = phi i64 [ %12, %.lr.ph ], [ %indvars.iv.next, %25 ]
  %22 = getelementptr inbounds %struct._Bucket, ptr %11, i64 %indvars.iv, i32 0, i32 1
  %23 = load i8, ptr %22, align 8
  %24 = icmp eq i8 %23, 0
  br i1 %24, label %25, label %.critedge.loopexit49

25:                                               ; preds = %21
  %indvars.iv.next = add nuw nsw i64 %indvars.iv, 1
  %lftr.wideiv = trunc i64 %indvars.iv.next to i32
  %exitcond.not = icmp eq i32 %8, %lftr.wideiv
  br i1 %exitcond.not, label %.critedge.thread, label %21

.critedge.thread:                                 ; preds = %25, %20, %.preheader
  %.2.ph = phi i32 [ %3, %.preheader ], [ %8, %20 ], [ %8, %25 ]
  %.not54 = icmp ult i32 %.2.ph, %8
  %.mux48 = select i1 %.not54, i32 2, i32 3
  br label %35

.critedge.loopexit:                               ; preds = %16
  %26 = trunc i64 %indvars.iv41 to i32
  br label %.critedge

.critedge.loopexit49:                             ; preds = %21
  %27 = trunc i64 %indvars.iv to i32
  br label %.critedge

.critedge:                                        ; preds = %.critedge.loopexit49, %.critedge.loopexit, %.preheader28
  %.2 = phi i32 [ %3, %.preheader28 ], [ %26, %.critedge.loopexit ], [ %27, %.critedge.loopexit49 ]
  %28 = icmp uge i32 %.2, %8
  %brmerge = or i1 %.not, %28
  %.mux = select i1 %28, i32 3, i32 2
  br i1 %brmerge, label %35, label %29

29:                                               ; preds = %.critedge
  %30 = getelementptr inbounds i8, ptr %0, i64 16
  %31 = load ptr, ptr %30, align 8
  %32 = zext i32 %.2 to i64
  %33 = getelementptr inbounds %struct._Bucket, ptr %31, i64 %32, i32 2
  %34 = load ptr, ptr %33, align 8
  %.not26 = icmp eq ptr %34, null
  %. = select i1 %.not26, i32 2, i32 1
  br label %35

35:                                               ; preds = %.critedge.thread, %.critedge, %29
  %.024 = phi i32 [ %., %29 ], [ %.mux, %.critedge ], [ %.mux48, %.critedge.thread ]
  ret i32 %.024
}